target datalayout = "e-m:e-p270:32:32-p271:32:32-p272:64:64-i64:64-i128:128-f80:128-n8:16:32:64-S128"
target triple = "x86_64-pc-linux-gnu"

%struct.dirent = type { i64, i64, i16, i8, [256 x i8] }

@.str.13 = private unnamed_addr constant [3 x i8] c"js\00", align 1
@.str.16 = private unnamed_addr constant [32 x i8] c"/sys/class/input/event%d/device\00", align 1

; Function Attrs: nounwind uwtable
define internal i32 @get_event_joystick_index(i32 noundef %0) #0 {
  %2 = alloca i32, align 4
  %3 = alloca i32, align 4
  %4 = alloca i32, align 4
  %5 = alloca i32, align 4
  %6 = alloca ptr, align 8
  %7 = alloca [4096 x i8], align 16
  store i32 %0, ptr %2, align 4
  call void @llvm.lifetime.start.p0(i64 4, ptr %3) #11
  store i32 -1, ptr %3, align 4
  call void @llvm.lifetime.start.p0(i64 4, ptr %4) #11
  call void @llvm.lifetime.start.p0(i64 4, ptr %5) #11
  call void @llvm.lifetime.start.p0(i64 8, ptr %6) #11
  store ptr null, ptr %6, align 8
  call void @llvm.lifetime.start.p0(i64 4096, ptr %7) #11
  %8 = getelementptr inbounds [4096 x i8], ptr %7, i64 0, i64 0
  %9 = load i32, ptr %2, align 4
  %10 = call i32 (ptr, i64, ptr, ...) @SDL_snprintf_REAL(ptr noundef %8, i64 noundef 4096, ptr noundef @.str.16, i32 noundef %9)
  %11 = getelementptr inbounds [4096 x i8], ptr %7, i64 0, i64 0
  %12 = call i32 @scandir(ptr noundef %11, ptr noundef %6, ptr noundef null, ptr noundef @alphasort)
  store i32 %12, ptr %5, align 4
  store i32 0, ptr %4, align 4
  br label %13

13:                                               ; preds = %43, %1
  %14 = load i32, ptr %4, align 4
  %15 = load i32, ptr %5, align 4
  %16 = icmp slt i32 %14, %15
  br i1 %16, label %17, label %46

17:                                               ; preds = %13
  %18 = load ptr, ptr %6, align 8
  %19 = load i32, ptr %4, align 4
  %20 = sext i32 %19 to i64
  %21 = getelementptr inbounds ptr, ptr %18, i64 %20
  %22 = load ptr, ptr %21, align 8
  %23 = getelementptr inbounds nuw %struct.dirent, ptr %22, i32 0, i32 4
  %24 = getelementptr inbounds [256 x i8], ptr %23, i64 0, i64 0
  %25 = call i32 @SDL_strncmp_REAL(ptr noundef %24, ptr noundef @.str.13, i64 noundef 2)
  %26 = icmp eq i32 %25, 0
  br i1 %26, label %27, label %37

27:                                               ; preds = %17
  %28 = load ptr, ptr %6, align 8
  %29 = load i32, ptr %4, align 4
  %30 = sext i32 %29 to i64
  %31 = getelementptr inbounds ptr, ptr %28, i64 %30
  %32 = load ptr, ptr %31, align 8
  %33 = getelementptr inbounds nuw %struct.dirent, ptr %32, i32 0, i32 4
  %34 = getelementptr inbounds [256 x i8], ptr %33, i64 0, i64 0
  %35 = getelementptr inbounds i8, ptr %34, i64 2
  %36 = call i32 @SDL_atoi_REAL(ptr noundef %35)
  store i32 %36, ptr %3, align 4
  br label %37

37:                                               ; preds = %27, %17
  %38 = load ptr, ptr %6, align 8
  %39 = load i32, ptr %4, align 4
  %40 = sext i32 %39 to i64
  %41 = getelementptr inbounds ptr, ptr %38, i64 %40
  %42 = load ptr, ptr %41, align 8
  call void @free(ptr noundef %42) #11
  br label %43

43:                                               ; preds = %37
  %44 = load i32, ptr %4, align 4
  %45 = add nsw i32 %44, 1
  store i32 %45, ptr %4, align 4
  br label %13, !llvm.loop !21

46:                                               ; preds = %13
  %47 = load ptr, ptr %6, align 8
  call void @free(ptr noundef %47) #11
  %48 = load i32, ptr %3, align 4
  call void @llvm.lifetime.end.p0(i64 4096, ptr %7) #11
  call void @llvm.lifetime.end.p0(i64 8, ptr %6) #11
  call void @llvm.lifetime.end.p0(i64 4, ptr %5) #11
  call void @llvm.lifetime.end.p0(i64 4, ptr %4) #11
  call void @llvm.lifetime.end.p0(i64 4, ptr %3) #11
  ret i32 %48
}