; Function Attrs: nounwind uwtable
define internal fastcc i32 @get_event_joystick_index(i32 noundef %0) unnamed_addr #0 {
  %2 = alloca ptr, align 8
  %3 = alloca [4096 x i8], align 16
  call void @llvm.lifetime.start.p0(i64 8, ptr nonnull %2) #18
  store ptr null, ptr %2, align 8
  call void @llvm.lifetime.start.p0(i64 4096, ptr nonnull %3) #18
  %4 = call i32 (ptr, i64, ptr, ...) @SDL_snprintf_REAL(ptr noundef nonnull %3, i64 noundef 4096, ptr noundef nonnull @.str.16, i32 noundef %0) #18
  %5 = call i32 @scandir(ptr noundef nonnull %3, ptr noundef nonnull %2, ptr noundef null, ptr noundef nonnull @alphasort) #18
  %6 = icmp sgt i32 %5, 0
  br i1 %6, label %.lr.ph.preheader, label %._crit_edge

.lr.ph.preheader:                                 ; preds = %1
  %wide.trip.count = zext nneg i32 %5 to i64
  br label %.lr.ph

.lr.ph:                                           ; preds = %.lr.ph.preheader, %19
  %indvars.iv = phi i64 [ 0, %.lr.ph.preheader ], [ %indvars.iv.next, %19 ]
  %.010 = phi i32 [ -1, %.lr.ph.preheader ], [ %.1, %19 ]
  %7 = load ptr, ptr %2, align 8
  %8 = getelementptr inbounds nuw ptr, ptr %7, i64 %indvars.iv
  %9 = load ptr, ptr %8, align 8
  %10 = getelementptr inbounds nuw i8, ptr %9, i64 19
  %11 = call i32 @SDL_strncmp_REAL(ptr noundef nonnull %10, ptr noundef nonnull @.str.13, i64 noundef 2) #18
  %12 = icmp eq i32 %11, 0
  br i1 %12, label %13, label %19

13:                                               ; preds = %.lr.ph
  %14 = load ptr, ptr %2, align 8
  %15 = getelementptr inbounds nuw ptr, ptr %14, i64 %indvars.iv
  %16 = load ptr, ptr %15, align 8
  %17 = getelementptr inbounds nuw i8, ptr %16, i64 21
  %18 = call i32 @SDL_atoi_REAL(ptr noundef nonnull %17) #18
  br label %19

19:                                               ; preds = %13, %.lr.ph
  %.1 = phi i32 [ %18, %13 ], [ %.010, %.lr.ph ]
  %20 = load ptr, ptr %2, align 8
  %21 = getelementptr inbounds nuw ptr, ptr %20, i64 %indvars.iv
  %22 = load ptr, ptr %21, align 8
  call void @free(ptr noundef %22) #18
  %indvars.iv.next = add nuw nsw i64 %indvars.iv, 1
  %exitcond.not = icmp eq i64 %indvars.iv.next, %wide.trip.count
  br i1 %exitcond.not, label %._crit_edge, label %.lr.ph, !llvm.loop !28

._crit_edge:                                      ; preds = %19, %1
  %.0.lcssa = phi i32 [ -1, %1 ], [ %.1, %19 ]
  %23 = load ptr, ptr %2, align 8
  call void @free(ptr noundef %23) #18
  call void @llvm.lifetime.end.p0(i64 4096, ptr nonnull %3) #18
  call void @llvm.lifetime.end.p0(i64 8, ptr nonnull %2) #18
  ret i32 %.0.lcssa
}